Certificate:
    Data:
        Version: 3 (0x2)
        Serial Number: 10 (0xa)
    Signature Algorithm: GOST R 34.11-2012 with GOST R 34.10-2012 (256 bit)
        Issuer: CN=Example
        Validity
            Not Before: Jan  1 00:00:00 2001 GMT
            Not After : Dec 31 00:00:00 2050 GMT
        Subject: CN=Example
        Subject Public Key Info:
            Public Key Algorithm: GOST R 34.10-2012 (256 bit)
                Public key:
                   X:99C3DF265EA59350640BA69D1DE04418AF3FEA03EC0F85F2DD84E8BED4952774
                   Y:E218631A69C47C122E2D516DA1C09E6BD19344D94389D1F16C0C4D4DCF96F578
                Parameter set: GOST R 34.10-2012 (256 bit) ParamSet A
                Digest Algorithm: GOST R 34.11-2012 (256 bit)
        X509v3 extensions:
            X509v3 Basic Constraints: critical
                CA:TRUE
    Signature Algorithm: GOST R 34.11-2012 with GOST R 34.10-2012 (256 bit)
         14:0b:4d:a9:12:4b:09:cb:0d:5c:e9:28:ee:87:42:73:a3:10:
         12:94:92:ec:0e:29:36:9e:3b:79:12:48:57:8c:1d:0e:1d:a5:
         be:34:7c:6f:1b:52:56:c7:ae:ac:20:0a:d6:4a:c7:7a:6f:5b:
         3a:0e:09:73:18:e7:ae:6e:e7:69
-----BEGIN CERTIFICATE-----
MIIBJTCB06ADAgECAgEKMAoGCCqFAwcBAQMCMBIxEDAOBgNVBAMTB0V4YW1wbGUw
IBcNMDEwMTAxMDAwMDAwWhgPMjA1MDEyMzEwMDAwMDBaMBIxEDAOBgNVBAMTB0V4
YW1wbGUwXjAXBggqhQMHAQEBATALBgkqhQMHAQIBAQEDQwAEQHQnldS+6ITd8oUP
7APqP68YROAdnaYLZFCTpV4m38OZePWWz01NDGzx0YlD2UST0WuewKFtUS0uEnzE
aRpjGOKjEzARMA8GA1UdEwEB/wQFMAMBAf8wCgYIKoUDBwEBAwIDQQAUC02pEksJ
yw1c6Sjuh0JzoxASlJLsDik2njt5EkhXjB0OHaW+NHxvG1JWx66sIArWSsd6b1s6
DglzGOeubudp
-----END CERTIFICATE-----
